; Function Attrs: mustprogress nounwind uwtable
define hidden void @_ZN14XPageAllocator13increase_usedEmb(ptr noundef nonnull align 8 dereferenceable(609) %0, i64 noundef %1, i1 noundef zeroext %2) local_unnamed_addr #1 align 2 {
  br i1 %2, label %4, label %8

4:                                                ; preds = %3
  %5 = getelementptr inbounds i8, ptr %0, i64 456
  %6 = load i64, ptr %5, align 8
  %7 = sub i64 %6, %1
  store i64 %7, ptr %5, align 8
  br label %8

8:                                                ; preds = %4, %3
  %9 = getelementptr inbounds i8, ptr %0, i64 432
  %10 = tail call noundef i64 asm sideeffect "lock xaddq $0,($2)", "=r,0,r,~{cc},~{memory},~{dirflag},~{fpsr},~{flags}"(i64 %1, ptr nonnull %9) #14, !srcloc !6
  %11 = add i64 %10, %1
  %12 = getelementptr inbounds i8, ptr %0, i64 440
  %13 = load i64, ptr %12, align 8
  %14 = icmp ugt i64 %11, %13
  br i1 %14, label %15, label %16

15:                                               ; preds = %8
  store i64 %11, ptr %12, align 8
  br label %16

16:                                               ; preds = %15, %8
  ret void
}